(lp1
S'SIRI_rsi0'
p2
aS'SIRI_rsi1'
p3
aS'SIRI_rsi2'
p4
aS'SIRI_vol0'
p5
aS'SIRI_vol1'
p6
aS'SIRI_vol2'
p7
aS'SIRI_sma0'
p8
aS'SIRI_sma1'
p9
aS'SIRI_sma2'
p10
aS'SIRI_cci0'
p11
aS'SIRI_cci1'
p12
aS'SIRI_cci2'
p13
aS'SIRI_per0'
p14
aS'SIRI_per1'
p15
aS'SIRI_per2'
p16
aS'SIRI_mom0'
p17
aS'SIRI_mom1'
p18
aS'SIRI_mom2'
p19
aS'SIRI_bol0'
p20
aS'SIRI_bol1'
p21
aS'SIRI_bol2'
p22
aS'SIRI_aro0'
p23
aS'SIRI_aro1'
p24
aS'SIRI_aro2'
p25
aS'SIRI_mac0'
p26
aS'SIRI_mac1'
p27
aS'SIRI_mac2'
p28
aS'SIRI_mactwo0'
p29
aS'SIRI_mactwo1'
p30
aS'SIRI_mactwo2'
p31
aS'SIRI_adx0'
p32
aS'SIRI_adx1'
p33
aS'SIRI_adx2'
p34
aS'SIRI_kdo0'
p35
aS'SIRI_kdo1'
p36
aS'SIRI_kdo2'
p37
aS'^GSPC_rsi0'
p38
aS'^GSPC_rsi1'
p39
aS'^GSPC_rsi2'
p40
aS'^GSPC_vol0'
p41
aS'^GSPC_vol1'
p42
aS'^GSPC_vol2'
p43
aS'^GSPC_sma0'
p44
aS'^GSPC_sma1'
p45
aS'^GSPC_sma2'
p46
aS'^GSPC_cci0'
p47
aS'^GSPC_cci1'
p48
aS'^GSPC_cci2'
p49
aS'^GSPC_per0'
p50
aS'^GSPC_per1'
p51
aS'^GSPC_per2'
p52
aS'^GSPC_mom0'
p53
aS'^GSPC_mom1'
p54
aS'^GSPC_mom2'
p55
aS'^GSPC_bol0'
p56
aS'^GSPC_bol1'
p57
aS'^GSPC_bol2'
p58
aS'^GSPC_aro0'
p59
aS'^GSPC_aro1'
p60
aS'^GSPC_aro2'
p61
aS'^GSPC_mac0'
p62
aS'^GSPC_mac1'
p63
aS'^GSPC_mac2'
p64
aS'^GSPC_mactwo0'
p65
aS'^GSPC_mactwo1'
p66
aS'^GSPC_mactwo2'
p67
aS'^GSPC_adx0'
p68
aS'^GSPC_adx1'
p69
aS'^GSPC_adx2'
p70
aS'^GSPC_kdo0'
p71
aS'^GSPC_kdo1'
p72
aS'^GSPC_kdo2'
p73
aS'^GSPC_rets0'
p74
aS'^GSPC_rets1'
p75
aS'^GSPC_rets2'
p76
aS'^IXIC_rsi0'
p77
aS'^IXIC_rsi1'
p78
aS'^IXIC_rsi2'
p79
aS'^IXIC_vol0'
p80
aS'^IXIC_vol1'
p81
aS'^IXIC_vol2'
p82
aS'^IXIC_sma0'
p83
aS'^IXIC_sma1'
p84
aS'^IXIC_sma2'
p85
aS'^IXIC_cci0'
p86
aS'^IXIC_cci1'
p87
aS'^IXIC_cci2'
p88
aS'^IXIC_per0'
p89
aS'^IXIC_per1'
p90
aS'^IXIC_per2'
p91
aS'^IXIC_mom0'
p92
aS'^IXIC_mom1'
p93
aS'^IXIC_mom2'
p94
aS'^IXIC_bol0'
p95
aS'^IXIC_bol1'
p96
aS'^IXIC_bol2'
p97
aS'^IXIC_aro0'
p98
aS'^IXIC_aro1'
p99
aS'^IXIC_aro2'
p100
aS'^IXIC_mac0'
p101
aS'^IXIC_mac1'
p102
aS'^IXIC_mac2'
p103
aS'^IXIC_mactwo0'
p104
aS'^IXIC_mactwo1'
p105
aS'^IXIC_mactwo2'
p106
aS'^IXIC_adx0'
p107
aS'^IXIC_adx1'
p108
aS'^IXIC_adx2'
p109
aS'^IXIC_kdo0'
p110
aS'^IXIC_kdo1'
p111
aS'^IXIC_kdo2'
p112
aS'^IXIC_rets0'
p113
aS'^IXIC_rets1'
p114
aS'^IXIC_rets2'
p115
aS'^DJI_rsi0'
p116
aS'^DJI_rsi1'
p117
aS'^DJI_rsi2'
p118
aS'^DJI_vol0'
p119
aS'^DJI_vol1'
p120
aS'^DJI_vol2'
p121
aS'^DJI_sma0'
p122
aS'^DJI_sma1'
p123
aS'^DJI_sma2'
p124
aS'^DJI_cci0'
p125
aS'^DJI_cci1'
p126
aS'^DJI_cci2'
p127
aS'^DJI_per0'
p128
aS'^DJI_per1'
p129
aS'^DJI_per2'
p130
aS'^DJI_mom0'
p131
aS'^DJI_mom1'
p132
aS'^DJI_mom2'
p133
aS'^DJI_bol0'
p134
aS'^DJI_bol1'
p135
aS'^DJI_bol2'
p136
aS'^DJI_aro0'
p137
aS'^DJI_aro1'
p138
aS'^DJI_aro2'
p139
aS'^DJI_mac0'
p140
aS'^DJI_mac1'
p141
aS'^DJI_mac2'
p142
aS'^DJI_mactwo0'
p143
aS'^DJI_mactwo1'
p144
aS'^DJI_mactwo2'
p145
aS'^DJI_adx0'
p146
aS'^DJI_adx1'
p147
aS'^DJI_adx2'
p148
aS'^DJI_kdo0'
p149
aS'^DJI_kdo1'
p150
aS'^DJI_kdo2'
p151
aS'^DJI_rets0'
p152
aS'^DJI_rets1'
p153
aS'^DJI_rets2'
p154
aS'GLD_rsi0'
p155
aS'GLD_rsi1'
p156
aS'GLD_rsi2'
p157
aS'GLD_vol0'
p158
aS'GLD_vol1'
p159
aS'GLD_vol2'
p160
aS'GLD_sma0'
p161
aS'GLD_sma1'
p162
aS'GLD_sma2'
p163
aS'GLD_cci0'
p164
aS'GLD_cci1'
p165
aS'GLD_cci2'
p166
aS'GLD_per0'
p167
aS'GLD_per1'
p168
aS'GLD_per2'
p169
aS'GLD_mom0'
p170
aS'GLD_mom1'
p171
aS'GLD_mom2'
p172
aS'GLD_bol0'
p173
aS'GLD_bol1'
p174
aS'GLD_bol2'
p175
aS'GLD_aro0'
p176
aS'GLD_aro1'
p177
aS'GLD_aro2'
p178
aS'GLD_mac0'
p179
aS'GLD_mac1'
p180
aS'GLD_mac2'
p181
aS'GLD_mactwo0'
p182
aS'GLD_mactwo1'
p183
aS'GLD_mactwo2'
p184
aS'GLD_adx0'
p185
aS'GLD_adx1'
p186
aS'GLD_adx2'
p187
aS'GLD_kdo0'
p188
aS'GLD_kdo1'
p189
aS'GLD_kdo2'
p190
aS'GLD_rets0'
p191
aS'GLD_rets1'
p192
aS'GLD_rets2'
p193
aS'USO_rsi0'
p194
aS'USO_rsi1'
p195
aS'USO_rsi2'
p196
aS'USO_vol0'
p197
aS'USO_vol1'
p198
aS'USO_vol2'
p199
aS'USO_sma0'
p200
aS'USO_sma1'
p201
aS'USO_sma2'
p202
aS'USO_cci0'
p203
aS'USO_cci1'
p204
aS'USO_cci2'
p205
aS'USO_per0'
p206
aS'USO_per1'
p207
aS'USO_per2'
p208
aS'USO_mom0'
p209
aS'USO_mom1'
p210
aS'USO_mom2'
p211
aS'USO_bol0'
p212
aS'USO_bol1'
p213
aS'USO_bol2'
p214
aS'USO_aro0'
p215
aS'USO_aro1'
p216
aS'USO_aro2'
p217
aS'USO_mac0'
p218
aS'USO_mac1'
p219
aS'USO_mac2'
p220
aS'USO_mactwo0'
p221
aS'USO_mactwo1'
p222
aS'USO_mactwo2'
p223
aS'USO_adx0'
p224
aS'USO_adx1'
p225
aS'USO_adx2'
p226
aS'USO_kdo0'
p227
aS'USO_kdo1'
p228
aS'USO_kdo2'
p229
aS'USO_rets0'
p230
aS'USO_rets1'
p231
aS'USO_rets2'
p232
aS'SPY_rsi0'
p233
aS'SPY_rsi1'
p234
aS'SPY_rsi2'
p235
aS'SPY_vol0'
p236
aS'SPY_vol1'
p237
aS'SPY_vol2'
p238
aS'SPY_sma0'
p239
aS'SPY_sma1'
p240
aS'SPY_sma2'
p241
aS'SPY_cci0'
p242
aS'SPY_cci1'
p243
aS'SPY_cci2'
p244
aS'SPY_per0'
p245
aS'SPY_per1'
p246
aS'SPY_per2'
p247
aS'SPY_mom0'
p248
aS'SPY_mom1'
p249
aS'SPY_mom2'
p250
aS'SPY_bol0'
p251
aS'SPY_bol1'
p252
aS'SPY_bol2'
p253
aS'SPY_aro0'
p254
aS'SPY_aro1'
p255
aS'SPY_aro2'
p256
aS'SPY_mac0'
p257
aS'SPY_mac1'
p258
aS'SPY_mac2'
p259
aS'SPY_mactwo0'
p260
aS'SPY_mactwo1'
p261
aS'SPY_mactwo2'
p262
aS'SPY_adx0'
p263
aS'SPY_adx1'
p264
aS'SPY_adx2'
p265
aS'SPY_kdo0'
p266
aS'SPY_kdo1'
p267
aS'SPY_kdo2'
p268
aS'SPY_rets0'
p269
aS'SPY_rets1'
p270
aS'SPY_rets2'
p271
aS'SIRI_rsi3'
p272
aS'SIRI_rsi4'
p273
aS'SIRI_rsi5'
p274
aS'SIRI_rsi6'
p275
aS'SIRI_rsi7'
p276
aS'SIRI_rsi8'
p277
aS'SIRI_rsi9'
p278
aS'SIRI_rsi10'
p279
aS'SIRI_rsi11'
p280
aS'SIRI_rsi12'
p281
aS'SIRI_rsi13'
p282
aS'SIRI_rsi14'
p283
aS'SIRI_rsi15'
p284
aS'SIRI_rsi16'
p285
aS'SIRI_rsi17'
p286
aS'SIRI_rsi18'
p287
aS'SIRI_rsi19'
p288
aS'SIRI_vol3'
p289
aS'SIRI_vol4'
p290
aS'SIRI_vol5'
p291
aS'SIRI_vol6'
p292
aS'SIRI_vol7'
p293
aS'SIRI_vol8'
p294
aS'SIRI_vol9'
p295
aS'SIRI_vol10'
p296
aS'SIRI_vol11'
p297
aS'SIRI_vol12'
p298
aS'SIRI_vol13'
p299
aS'SIRI_vol14'
p300
aS'SIRI_vol15'
p301
aS'SIRI_vol16'
p302
aS'SIRI_vol17'
p303
aS'SIRI_vol18'
p304
aS'SIRI_vol19'
p305
aS'SIRI_sma3'
p306
aS'SIRI_sma4'
p307
aS'SIRI_sma5'
p308
aS'SIRI_sma6'
p309
aS'SIRI_sma7'
p310
aS'SIRI_sma8'
p311
aS'SIRI_sma9'
p312
aS'SIRI_sma10'
p313
aS'SIRI_sma11'
p314
aS'SIRI_sma12'
p315
aS'SIRI_sma13'
p316
aS'SIRI_sma14'
p317
aS'SIRI_sma15'
p318
aS'SIRI_sma16'
p319
aS'SIRI_sma17'
p320
aS'SIRI_sma18'
p321
aS'SIRI_sma19'
p322
aS'SIRI_cci3'
p323
aS'SIRI_cci4'
p324
aS'SIRI_cci5'
p325
aS'SIRI_cci6'
p326
aS'SIRI_cci7'
p327
aS'SIRI_cci8'
p328
aS'SIRI_cci9'
p329
aS'SIRI_cci10'
p330
aS'SIRI_cci11'
p331
aS'SIRI_cci12'
p332
aS'SIRI_cci13'
p333
aS'SIRI_cci14'
p334
aS'SIRI_cci15'
p335
aS'SIRI_cci16'
p336
aS'SIRI_cci17'
p337
aS'SIRI_cci18'
p338
aS'SIRI_cci19'
p339
aS'SIRI_per3'
p340
aS'SIRI_per4'
p341
aS'SIRI_per5'
p342
aS'SIRI_per6'
p343
aS'SIRI_per7'
p344
aS'SIRI_per8'
p345
aS'SIRI_per9'
p346
aS'SIRI_per10'
p347
aS'SIRI_per11'
p348
aS'SIRI_per12'
p349
aS'SIRI_per13'
p350
aS'SIRI_per14'
p351
aS'SIRI_per15'
p352
aS'SIRI_per16'
p353
aS'SIRI_per17'
p354
aS'SIRI_per18'
p355
aS'SIRI_per19'
p356
aS'SIRI_mom3'
p357
aS'SIRI_mom4'
p358
aS'SIRI_mom5'
p359
aS'SIRI_mom6'
p360
aS'SIRI_mom7'
p361
aS'SIRI_mom8'
p362
aS'SIRI_mom9'
p363
aS'SIRI_mom10'
p364
aS'SIRI_mom11'
p365
aS'SIRI_mom12'
p366
aS'SIRI_mom13'
p367
aS'SIRI_mom14'
p368
aS'SIRI_mom15'
p369
aS'SIRI_mom16'
p370
aS'SIRI_mom17'
p371
aS'SIRI_mom18'
p372
aS'SIRI_mom19'
p373
aS'SIRI_bol3'
p374
aS'SIRI_bol4'
p375
aS'SIRI_bol5'
p376
aS'SIRI_bol6'
p377
aS'SIRI_bol7'
p378
aS'SIRI_bol8'
p379
aS'SIRI_bol9'
p380
aS'SIRI_bol10'
p381
aS'SIRI_bol11'
p382
aS'SIRI_bol12'
p383
aS'SIRI_bol13'
p384
aS'SIRI_bol14'
p385
aS'SIRI_bol15'
p386
aS'SIRI_bol16'
p387
aS'SIRI_bol17'
p388
aS'SIRI_bol18'
p389
aS'SIRI_bol19'
p390
aS'SIRI_aro3'
p391
aS'SIRI_aro4'
p392
aS'SIRI_aro5'
p393
aS'SIRI_aro6'
p394
aS'SIRI_aro7'
p395
aS'SIRI_aro8'
p396
aS'SIRI_aro9'
p397
aS'SIRI_aro10'
p398
aS'SIRI_aro11'
p399
aS'SIRI_aro12'
p400
aS'SIRI_aro13'
p401
aS'SIRI_aro14'
p402
aS'SIRI_aro15'
p403
aS'SIRI_aro16'
p404
aS'SIRI_aro17'
p405
aS'SIRI_aro18'
p406
aS'SIRI_aro19'
p407
aS'SIRI_mac3'
p408
aS'SIRI_mac4'
p409
aS'SIRI_mac5'
p410
aS'SIRI_mac6'
p411
aS'SIRI_mac7'
p412
aS'SIRI_mac8'
p413
aS'SIRI_mac9'
p414
aS'SIRI_mac10'
p415
aS'SIRI_mac11'
p416
aS'SIRI_mac12'
p417
aS'SIRI_mac13'
p418
aS'SIRI_mac14'
p419
aS'SIRI_mac15'
p420
aS'SIRI_mac16'
p421
aS'SIRI_mac17'
p422
aS'SIRI_mac18'
p423
aS'SIRI_mac19'
p424
aS'SIRI_mactwo3'
p425
aS'SIRI_mactwo4'
p426
aS'SIRI_mactwo5'
p427
aS'SIRI_mactwo6'
p428
aS'SIRI_mactwo7'
p429
aS'SIRI_mactwo8'
p430
aS'SIRI_mactwo9'
p431
aS'SIRI_mactwo10'
p432
aS'SIRI_mactwo11'
p433
aS'SIRI_mactwo12'
p434
aS'SIRI_mactwo13'
p435
aS'SIRI_mactwo14'
p436
aS'SIRI_mactwo15'
p437
aS'SIRI_mactwo16'
p438
aS'SIRI_mactwo17'
p439
aS'SIRI_mactwo18'
p440
aS'SIRI_mactwo19'
p441
aS'SIRI_adx3'
p442
aS'SIRI_adx4'
p443
aS'SIRI_adx5'
p444
aS'SIRI_adx6'
p445
aS'SIRI_adx7'
p446
aS'SIRI_adx8'
p447
aS'SIRI_adx9'
p448
aS'SIRI_adx10'
p449
aS'SIRI_adx11'
p450
aS'SIRI_adx12'
p451
aS'SIRI_adx13'
p452
aS'SIRI_adx14'
p453
aS'SIRI_adx15'
p454
aS'SIRI_adx16'
p455
aS'SIRI_adx17'
p456
aS'SIRI_adx18'
p457
aS'SIRI_adx19'
p458
aS'SIRI_kdo3'
p459
aS'SIRI_kdo4'
p460
aS'SIRI_kdo5'
p461
aS'SIRI_kdo6'
p462
aS'SIRI_kdo7'
p463
aS'SIRI_kdo8'
p464
aS'SIRI_kdo9'
p465
aS'SIRI_kdo10'
p466
aS'SIRI_kdo11'
p467
aS'SIRI_kdo12'
p468
aS'SIRI_kdo13'
p469
aS'SIRI_kdo14'
p470
aS'SIRI_kdo15'
p471
aS'SIRI_kdo16'
p472
aS'SIRI_kdo17'
p473
aS'SIRI_kdo18'
p474
aS'SIRI_kdo19'
p475
a.