(lp1
S'AAPL_adx1'
p2
aS'AAPL_adx2'
p3
aS'AAPL_adx3'
p4
aS'AAPL_adx4'
p5
aS'AAPL_adx5'
p6
aS'AAPL_adx6'
p7
aS'AAPL_aro4'
p8
aS'AAPL_aro5'
p9
aS'AAPL_aro6'
p10
aS'AAPL_aro7'
p11
aS'AAPL_aro8'
p12
aS'AAPL_aro9'
p13
aS'AAPL_bol3'
p14
aS'AAPL_bol4'
p15
aS'AAPL_bol5'
p16
aS'AAPL_bol6'
p17
aS'AAPL_bol7'
p18
aS'AAPL_bol8'
p19
aS'AAPL_cci3'
p20
aS'AAPL_cci4'
p21
aS'AAPL_cci5'
p22
aS'AAPL_cci6'
p23
aS'AAPL_cci7'
p24
aS'AAPL_cci8'
p25
aS'AAPL_d0'
p26
aS'AAPL_d1'
p27
aS'AAPL_d2'
p28
aS'AAPL_d3'
p29
aS'AAPL_d4'
p30
aS'AAPL_d5'
p31
aS'AAPL_mac0'
p32
aS'AAPL_mac1'
p33
aS'AAPL_mac2'
p34
aS'AAPL_mac20'
p35
aS'AAPL_mac21'
p36
aS'AAPL_mac22'
p37
aS'AAPL_mac23'
p38
aS'AAPL_mac24'
p39
aS'AAPL_mac25'
p40
aS'AAPL_mac3'
p41
aS'AAPL_mac4'
p42
aS'AAPL_mac5'
p43
aS'AAPL_mom0'
p44
aS'AAPL_mom1'
p45
aS'AAPL_mom2'
p46
aS'AAPL_mom3'
p47
aS'AAPL_mom4'
p48
aS'AAPL_mom5'
p49
aS'AAPL_per25'
p50
aS'AAPL_per26'
p51
aS'AAPL_per27'
p52
aS'AAPL_per28'
p53
aS'AAPL_per29'
p54
aS'AAPL_per30'
p55
aS'AAPL_rsi1'
p56
aS'AAPL_rsi2'
p57
aS'AAPL_rsi3'
p58
aS'AAPL_rsi4'
p59
aS'AAPL_rsi5'
p60
aS'AAPL_rsi6'
p61
aS'AAPL_sma0'
p62
aS'AAPL_sma1'
p63
aS'AAPL_sma2'
p64
aS'AAPL_sma3'
p65
aS'AAPL_sma4'
p66
aS'AAPL_sma5'
p67
aS'AAPL_vol0'
p68
aS'AAPL_vol1'
p69
aS'AAPL_vol2'
p70
aS'AAPL_vol3'
p71
aS'AAPL_vol4'
p72
aS'AAPL_vol5'
p73
aS'GLD_adx1'
p74
aS'GLD_adx2'
p75
aS'GLD_aro4'
p76
aS'GLD_aro5'
p77
aS'GLD_bol3'
p78
aS'GLD_bol4'
p79
aS'GLD_cci3'
p80
aS'GLD_cci4'
p81
aS'GLD_d0'
p82
aS'GLD_d1'
p83
aS'GLD_mac0'
p84
aS'GLD_mac1'
p85
aS'GLD_mac20'
p86
aS'GLD_mac21'
p87
aS'GLD_mom0'
p88
aS'GLD_mom1'
p89
aS'GLD_per28'
p90
aS'GLD_per29'
p91
aS'GLD_rsi1'
p92
aS'GLD_rsi2'
p93
aS'GLD_sma0'
p94
aS'GLD_sma1'
p95
aS'GLD_vol0'
p96
aS'GLD_vol1'
p97
aS'SPY_adx1'
p98
aS'SPY_adx2'
p99
aS'SPY_aro4'
p100
aS'SPY_aro5'
p101
aS'SPY_bol3'
p102
aS'SPY_bol4'
p103
aS'SPY_cci3'
p104
aS'SPY_cci4'
p105
aS'SPY_d0'
p106
aS'SPY_d1'
p107
aS'SPY_mac0'
p108
aS'SPY_mac1'
p109
aS'SPY_mac20'
p110
aS'SPY_mac21'
p111
aS'SPY_mom0'
p112
aS'SPY_mom1'
p113
aS'SPY_per28'
p114
aS'SPY_per29'
p115
aS'SPY_rsi1'
p116
aS'SPY_rsi2'
p117
aS'SPY_sma0'
p118
aS'SPY_sma1'
p119
aS'SPY_vol0'
p120
aS'SPY_vol1'
p121
aS'USO_adx1'
p122
aS'USO_adx2'
p123
aS'USO_aro4'
p124
aS'USO_aro5'
p125
aS'USO_bol3'
p126
aS'USO_bol4'
p127
aS'USO_cci3'
p128
aS'USO_cci4'
p129
aS'USO_d0'
p130
aS'USO_d1'
p131
aS'USO_mac0'
p132
aS'USO_mac1'
p133
aS'USO_mac20'
p134
aS'USO_mac21'
p135
aS'USO_mom0'
p136
aS'USO_mom1'
p137
aS'USO_per28'
p138
aS'USO_per29'
p139
aS'USO_rsi1'
p140
aS'USO_rsi2'
p141
aS'USO_sma0'
p142
aS'USO_sma1'
p143
aS'USO_vol0'
p144
aS'USO_vol1'
p145
aS'^DJI_adx1'
p146
aS'^DJI_adx2'
p147
aS'^DJI_aro4'
p148
aS'^DJI_aro5'
p149
aS'^DJI_bol3'
p150
aS'^DJI_bol4'
p151
aS'^DJI_cci3'
p152
aS'^DJI_cci4'
p153
aS'^DJI_d0'
p154
aS'^DJI_d1'
p155
aS'^DJI_mac0'
p156
aS'^DJI_mac1'
p157
aS'^DJI_mac20'
p158
aS'^DJI_mac21'
p159
aS'^DJI_mom0'
p160
aS'^DJI_mom1'
p161
aS'^DJI_per28'
p162
aS'^DJI_per29'
p163
aS'^DJI_rsi1'
p164
aS'^DJI_rsi2'
p165
aS'^DJI_sma0'
p166
aS'^DJI_sma1'
p167
aS'^DJI_vol0'
p168
aS'^DJI_vol1'
p169
aS'^GSPC_adx1'
p170
aS'^GSPC_adx2'
p171
aS'^GSPC_aro4'
p172
aS'^GSPC_aro5'
p173
aS'^GSPC_bol3'
p174
aS'^GSPC_bol4'
p175
aS'^GSPC_cci3'
p176
aS'^GSPC_cci4'
p177
aS'^GSPC_d0'
p178
aS'^GSPC_d1'
p179
aS'^GSPC_mac0'
p180
aS'^GSPC_mac1'
p181
aS'^GSPC_mac20'
p182
aS'^GSPC_mac21'
p183
aS'^GSPC_mom0'
p184
aS'^GSPC_mom1'
p185
aS'^GSPC_per28'
p186
aS'^GSPC_per29'
p187
aS'^GSPC_rsi1'
p188
aS'^GSPC_rsi2'
p189
aS'^GSPC_sma0'
p190
aS'^GSPC_sma1'
p191
aS'^GSPC_vol0'
p192
aS'^GSPC_vol1'
p193
aS'^IXIC_adx1'
p194
aS'^IXIC_adx2'
p195
aS'^IXIC_aro4'
p196
aS'^IXIC_aro5'
p197
aS'^IXIC_bol3'
p198
aS'^IXIC_bol4'
p199
aS'^IXIC_cci3'
p200
aS'^IXIC_cci4'
p201
aS'^IXIC_d0'
p202
aS'^IXIC_d1'
p203
aS'^IXIC_mac0'
p204
aS'^IXIC_mac1'
p205
aS'^IXIC_mac20'
p206
aS'^IXIC_mac21'
p207
aS'^IXIC_mom0'
p208
aS'^IXIC_mom1'
p209
aS'^IXIC_per28'
p210
aS'^IXIC_per29'
p211
aS'^IXIC_rsi1'
p212
aS'^IXIC_rsi2'
p213
aS'^IXIC_sma0'
p214
aS'^IXIC_sma1'
p215
aS'^IXIC_vol0'
p216
aS'^IXIC_vol1'
p217
aS'USO_rets0'
p218
aS'^GSPC_rets0'
p219
aS'^IXIC_rets0'
p220
aS'^DJI_rets0'
p221
aS'GLD_rets0'
p222
aS'SPY_rets0'
p223
a.