(lp1
S'AAPL_adx8'
p2
aS'AAPL_adx9'
p3
aS'AAPL_adx10'
p4
aS'AAPL_adx11'
p5
aS'AAPL_adx12'
p6
aS'AAPL_adx13'
p7
aS'AAPL_aro0'
p8
aS'AAPL_aro1'
p9
aS'AAPL_aro2'
p10
aS'AAPL_aro3'
p11
aS'AAPL_aro4'
p12
aS'AAPL_aro5'
p13
aS'AAPL_cci0'
p14
aS'AAPL_cci1'
p15
aS'AAPL_cci2'
p16
aS'AAPL_cci3'
p17
aS'AAPL_cci4'
p18
aS'AAPL_cci5'
p19
aS'AAPL_bol3'
p20
aS'AAPL_bol4'
p21
aS'AAPL_bol5'
p22
aS'AAPL_bol6'
p23
aS'AAPL_bol7'
p24
aS'AAPL_bol8'
p25
aS'AAPL_kdo0'
p26
aS'AAPL_kdo1'
p27
aS'AAPL_kdo2'
p28
aS'AAPL_kdo3'
p29
aS'AAPL_kdo4'
p30
aS'AAPL_kdo5'
p31
aS'AAPL_mac0'
p32
aS'AAPL_mac1'
p33
aS'AAPL_mac2'
p34
aS'AAPL_mac3'
p35
aS'AAPL_mac4'
p36
aS'AAPL_mac5'
p37
aS'AAPL_mactwo0'
p38
aS'AAPL_mactwo1'
p39
aS'AAPL_mactwo2'
p40
aS'AAPL_mactwo3'
p41
aS'AAPL_mactwo4'
p42
aS'AAPL_mactwo5'
p43
aS'AAPL_mom0'
p44
aS'AAPL_mom1'
p45
aS'AAPL_mom2'
p46
aS'AAPL_mom3'
p47
aS'AAPL_mom4'
p48
aS'AAPL_mom5'
p49
aS'AAPL_per20'
p50
aS'AAPL_per21'
p51
aS'AAPL_per22'
p52
aS'AAPL_per23'
p53
aS'AAPL_per24'
p54
aS'AAPL_per25'
p55
aS'AAPL_rsi0'
p56
aS'AAPL_rsi1'
p57
aS'AAPL_rsi2'
p58
aS'AAPL_rsi3'
p59
aS'AAPL_rsi4'
p60
aS'AAPL_rsi5'
p61
aS'AAPL_sma0'
p62
aS'AAPL_sma1'
p63
aS'AAPL_sma2'
p64
aS'AAPL_sma3'
p65
aS'AAPL_sma4'
p66
aS'AAPL_sma5'
p67
aS'AAPL_vol0'
p68
aS'AAPL_vol1'
p69
aS'AAPL_vol2'
p70
aS'AAPL_vol3'
p71
aS'AAPL_vol4'
p72
aS'AAPL_vol5'
p73
aS'^GSPC_adx8'
p74
aS'^GSPC_adx9'
p75
aS'^GSPC_aro0'
p76
aS'^GSPC_aro1'
p77
aS'^GSPC_cci3'
p78
aS'^GSPC_cci4'
p79
aS'^GSPC_bol3'
p80
aS'^GSPC_bol4'
p81
aS'^GSPC_kdo0'
p82
aS'^GSPC_kdo1'
p83
aS'^GSPC_mac0'
p84
aS'^GSPC_mac1'
p85
aS'^GSPC_mactwo0'
p86
aS'^GSPC_mactwo1'
p87
aS'^GSPC_mom0'
p88
aS'^GSPC_mom1'
p89
aS'^GSPC_per20'
p90
aS'^GSPC_per21'
p91
aS'^GSPC_rsi0'
p92
aS'^GSPC_rsi1'
p93
aS'^GSPC_sma0'
p94
aS'^GSPC_sma1'
p95
aS'^GSPC_vol0'
p96
aS'^GSPC_vol1'
p97
aS'^IXIC_adx8'
p98
aS'^IXIC_adx9'
p99
aS'^IXIC_aro0'
p100
aS'^IXIC_aro1'
p101
aS'^IXIC_cci3'
p102
aS'^IXIC_cci4'
p103
aS'^IXIC_bol3'
p104
aS'^IXIC_bol4'
p105
aS'^IXIC_kdo0'
p106
aS'^IXIC_kdo1'
p107
aS'^IXIC_mac0'
p108
aS'^IXIC_mac1'
p109
aS'^IXIC_mactwo0'
p110
aS'^IXIC_mactwo1'
p111
aS'^IXIC_mom0'
p112
aS'^IXIC_mom1'
p113
aS'^IXIC_per20'
p114
aS'^IXIC_per21'
p115
aS'^IXIC_rsi0'
p116
aS'^IXIC_rsi1'
p117
aS'^IXIC_sma0'
p118
aS'^IXIC_sma1'
p119
aS'^IXIC_vol0'
p120
aS'^IXIC_vol1'
p121
aS'^DJI_adx8'
p122
aS'^DJI_adx9'
p123
aS'^DJI_aro0'
p124
aS'^DJI_aro1'
p125
aS'^DJI_cci3'
p126
aS'^DJI_cci4'
p127
aS'^DJI_bol3'
p128
aS'^DJI_bol4'
p129
aS'^DJI_kdo0'
p130
aS'^DJI_kdo1'
p131
aS'^DJI_mac0'
p132
aS'^DJI_mac1'
p133
aS'^DJI_mactwo0'
p134
aS'^DJI_mactwo1'
p135
aS'^DJI_mom0'
p136
aS'^DJI_mom1'
p137
aS'^DJI_per20'
p138
aS'^DJI_per21'
p139
aS'^DJI_rsi0'
p140
aS'^DJI_rsi1'
p141
aS'^DJI_sma0'
p142
aS'^DJI_sma1'
p143
aS'^DJI_vol0'
p144
aS'^DJI_vol1'
p145
aS'GLD_adx8'
p146
aS'GLD_adx9'
p147
aS'GLD_aro0'
p148
aS'GLD_aro1'
p149
aS'GLD_cci3'
p150
aS'GLD_cci4'
p151
aS'GLD_bol3'
p152
aS'GLD_bol4'
p153
aS'GLD_kdo0'
p154
aS'GLD_kdo1'
p155
aS'GLD_mac0'
p156
aS'GLD_mac1'
p157
aS'GLD_mactwo0'
p158
aS'GLD_mactwo1'
p159
aS'GLD_mom0'
p160
aS'GLD_mom1'
p161
aS'GLD_per20'
p162
aS'GLD_per21'
p163
aS'GLD_rsi0'
p164
aS'GLD_rsi1'
p165
aS'GLD_sma0'
p166
aS'GLD_sma1'
p167
aS'GLD_vol0'
p168
aS'GLD_vol1'
p169
aS'USO_adx8'
p170
aS'USO_adx9'
p171
aS'USO_aro0'
p172
aS'USO_aro1'
p173
aS'USO_cci3'
p174
aS'USO_cci4'
p175
aS'USO_bol3'
p176
aS'USO_bol4'
p177
aS'USO_kdo0'
p178
aS'USO_kdo1'
p179
aS'USO_mac0'
p180
aS'USO_mac1'
p181
aS'USO_mactwo0'
p182
aS'USO_mactwo1'
p183
aS'USO_mom0'
p184
aS'USO_mom1'
p185
aS'USO_per20'
p186
aS'USO_per21'
p187
aS'USO_rsi0'
p188
aS'USO_rsi1'
p189
aS'USO_sma0'
p190
aS'USO_sma1'
p191
aS'USO_vol0'
p192
aS'USO_vol1'
p193
aS'SPY_adx8'
p194
aS'SPY_adx9'
p195
aS'SPY_aro0'
p196
aS'SPY_aro1'
p197
aS'SPY_cci3'
p198
aS'SPY_cci4'
p199
aS'SPY_bol3'
p200
aS'SPY_bol4'
p201
aS'SPY_kdo0'
p202
aS'SPY_kdo1'
p203
aS'SPY_mac0'
p204
aS'SPY_mac1'
p205
aS'SPY_mactwo0'
p206
aS'SPY_mactwo1'
p207
aS'SPY_mom0'
p208
aS'SPY_mom1'
p209
aS'SPY_per20'
p210
aS'SPY_per21'
p211
aS'SPY_rsi0'
p212
aS'SPY_rsi1'
p213
aS'SPY_sma0'
p214
aS'SPY_sma1'
p215
aS'SPY_vol0'
p216
aS'SPY_vol1'
p217
aS'^GSPC_rets0'
p218
aS'^IXIC_rets0'
p219
aS'^DJI_rets0'
p220
aS'GLD_rets0'
p221
aS'USO_rets0'
p222
aS'SPY_rets0'
p223
a.